(lp1
VAlcohol
p2
aVweight
p3
aVheight
p4
aVid
p5
aVnp2
p6
aVnwP
p7
aVwbc count
p8
aVlabel
p9
aVweight gain during pregenacy
p10
aVBaby's Movement During Pregnancy
p11
aVrbc count
p12
aVtimestamp
p13
aVsmoking
p14
aVplatelets count
p15
aVdiabetes
p16
aVblood pressureU
p17
aVage
p18
aVeye colour
p19
aVcity weather
p20
aVblood pressureL
p21
aV_id
p22
aVpregenacy month
p23
a.